#include <math.h>
#include <stdio.h>
#include <stdlib.h>
#include <string.h>

int main()
{
	int m,n,i,d=0,p=0;
	double b;
	char dna1[501],dna2[501];
	scanf("%lf",&b);
	scanf("%s",dna1);
	scanf("%s",dna2);
	m=strlen(dna1);
	n=strlen(dna2);
	for(i=0;dna1[i]&&dna2[i];i++)
	{
		if(m!=n)
		{
			d++;
			break;
		}
		if(dna1[i]!='A'&&dna1[i]!='T'&&dna1[i]!='C'&&dna1[i]!='G')
		{
			d++;
			break;
		}
		if(dna2[i]!='A'&&dna2[i]!='T'&&dna2[i]!='C'&&dna2[i]!='G')
		{
			d++;
			break;
		}
		if(dna1[i]==dna2[i])
		{
			p++;
		}
	}
	if((p*1.0/m)>b&&d==0)
	{
		printf("yes");
	}
	if(d!=0)
	{
		printf("error");
	}
	if((p*1.0/m)<=b&&d==0)
	{
		printf("no");
	}
	return 0;
}